(dp1
S'ent'
p2
c__builtin__
set
p3
((lp4
Vfoul
p5
aVwoods
p6
aVcyprus
p7
aVfeeding
p8
aVparis
p9
aVtrauma
p10
aVmanis
p11
aVdigit
p12
aVrise
p13
aVstipulate
p14
aVmotor_vehicle
p15
aVschool
p16
aVspacecraft
p17
aVvector
p18
aVheading
p19
aVjamaica
p20
aVforce
p21
aVungenerous
p22
aValmond
p23
aVdirect
p24
aVsnafu
p25
aVnail
p26
aVquill
p27
aVculpable_negligence
p28
aVinelegance
p29
aVasia
p30
aVfatness
p31
aVlawmaker
p32
aVnew
p33
aVnet
p34
aVneckline
p35
aVanthropology
p36
aVspecialism
p37
aVnoncompliant
p38
aVhunting
p39
aVsettler
p40
aVpermit
p41
aVknavery
p42
aVregimentation
p43
aVsecure
p44
aVstray
p45
aVrio_grande
p46
aVstrap
p47
aVcounty
p48
aVsledder
p49
aVstern
p50
aVnegative
p51
aVprivet
p52
aVracketeer
p53
aVcall
p54
aVstrike
p55
aVcalf
p56
aVwart
p57
aVwarp
p58
aVhole
p59
aVhold
p60
aVscribble
p61
aVrook
p62
aVjoin
p63
aVroom
p64
aVsetup
p65
aVblade
p66
aVgrovel
p67
aVroof
p68
aVroosevelt
p69
aVms
p70
aVflare
p71
aVroot
p72
aVsouring
p73
aVsubgenus
p74
aVjoyous
p75
aVwank
p76
aVdisparagement
p77
aVorion
p78
aVdyke
p79
aVruminant
p80
aVtravel
p81
aVpogy
p82
aVsignificance
p83
aVgate
p84
aVmodulation
p85
aVlag
p86
aVsparkler
p87
aVheart_valve
p88
aVlaw
p89
aVcoiner
p90
aVextortion
p91
aVpurchase
p92
aVneglect
p93
aVpreventive
p94
aVoperate
p95
aVscintillation
p96
aVwing
p97
aVwind
p98
aVbanger
p99
aVcession
p100
aVnaproxen_sodium
p101
aVoffice
p102
aVvary
p103
aVlondon
p104
aVwriting
p105
aVproduction
p106
aVwales
p107
aVfin
p108
aVcounterterrorist
p109
aVplaster
p110
aVbreak
p111
aVband
p112
aVdetachment
p113
aVinterrupt
p114
aVelavil
p115
aVspigot
p116
aVdebut
p117
aVchuck
p118
aVvolcano
p119
aVsham
p120
aVbond
p121
aVmdi
p122
aVseries
p123
aVextract
p124
aVmentha
p125
aVitch
p126
aVdriving
p127
aVmotel
p128
aVwaive
p129
aVmason
p130
aVsparkle
p131
aVdaniel
p132
aVmedicine
p133
aVwhiff
p134
aVjackfruit_tree
p135
aVfree
p136
aVsmacking
p137
aVsplasher
p138
aVuniversally
p139
aVpang
p140
aVsilicon
p141
aVplaywright
p142
aVrestrict
p143
aVhook
p144
aVphilosophical
p145
aVcomic
p146
aVditch
p147
aVhoof
p148
aVhood
p149
aVtanga
p150
aVepiglottis
p151
aVtoy
p152
aVdebase
p153
aVservice
p154
aVmaster
p155
aVsubmersion
p156
aVemblem
p157
aVserve
p158
aVgambler
p159
aVsymptom
p160
aVdredge
p161
aVoutlaw
p162
aVmeteorology
p163
aVshower
p164
aVprotract
p165
aVmint
p166
aVryegrass
p167
aVabsorber
p168
aVgenuine
p169
aVurinalysis
p170
aVchest
p171
aVhatch
p172
aVtransmit
p173
aVsnowflake
p174
aVinfliction
p175
aViceland
p176
aVobject
p177
aVkelly
p178
aVgermany
p179
aVsinger
p180
aVcanonization
p181
aVsum
p182
aVrenting
p183
aVarmament
p184
aVtoast
p185
aVstanza
p186
aVfolks
p187
aVcenturion
p188
aVpersonality
p189
aVstop
p190
aVperceive
p191
aVreversal
p192
aVconsiderate
p193
aVflanker
p194
aVbad
p195
aVarchitecture
p196
aVbam
p197
aVsteam
p198
aVreference
p199
aVheirloom
p200
aVsensitivity
p201
aVperoration
p202
aVresist
p203
aVresult
p204
aVgladiator
p205
aVfingerboard
p206
aVinappropriate
p207
aVepithelium
p208
aVwearable
p209
aVmug
p210
aVscore
p211
aVfinger
p212
aVodontology
p213
aVpreserve
p214
aVextend
p215
aVphysicist
p216
aVwear
p217
aVkitchen
p218
aVboffin
p219
aVsouth_africa
p220
aVeyeball
p221
aVjesse_james
p222
aVtone
p223
aVspear
p224
aVactive
p225
aVblending
p226
aVpregnancy
p227
aVtruss
p228
aVhitler
p229
aVwatercraft
p230
aVfry
p231
aVplebeian
p232
aVallergist
p233
aVhomo_erectus
p234
aVdarfur
p235
aVtoboggan
p236
aVaviation
p237
aVphysician
p238
aVinhibit
p239
aVsave
p240
aVair
p241
aVformatting
p242
aVwatercourse
p243
aVstudy
p244
aVpyramid
p245
aVhave
p246
aVbackrest
p247
aVrecuperate
p248
aVsting
p249
aVplayer
p250
aVsophisticate
p251
aVpathology
p252
aVseattle
p253
aVmake
p254
aVcooly
p255
aVsplit
p256
aVeuropean
p257
aVwheel
p258
aVindependent
p259
aVpapaya
p260
aVworkforce
p261
aVnorwegian
p262
aVwaterfall
p263
aVtope
p264
aVtune
p265
aVlucas
p266
aVacoustics
p267
aVgame
p268
aVocean
p269
aVrome
p270
aVplaque
p271
aVbirth
p272
aVsentence
p273
aVtorah
p274
aVassignee
p275
aVgrader
p276
aVrushing
p277
aVflooring
p278
aVspread
p279
aVobedient
p280
aVscaly_anteater
p281
aVinnocent
p282
aVrighteous
p283
aVsubmissive
p284
aVnightjar
p285
aVtroy_ounce
p286
aVaxial_skeleton
p287
aVbarge
p288
aVjudge
p289
aVhead_honcho
p290
aVzoom
p291
aVeyelet
p292
aVmoral
p293
aVpectoralis
p294
aVright
p295
aVdeal
p296
aVpeople
p297
aVrepudiate
p298
aVmalaysia
p299
aVelection
p300
aVviolinist
p301
aVgerminate
p302
aVsensationalism
p303
aVburn
p304
aVsubstitution
p305
aVchafe
p306
aVdigestible
p307
aVpaperhanger
p308
aVluau
p309
aVmagazine
p310
aVaden
p311
aVcrochet
p312
aVussr
p313
aVrefined
p314
aVtamil_nadu
p315
aVsupport
p316
aVtennis
p317
aVlegislation
p318
aVtheropod_dinosaur
p319
aVway
p320
aVmusic
p321
aVyid
p322
aVfork
p323
aVvitality
p324
aVisometrics
p325
aVsyndicate
p326
aVpiousness
p327
aVstraggle
p328
aVpaging
p329
aVtorturing
p330
aVemotional
p331
aVtrim
p332
aVmoore
p333
aVcomputing
p334
aVumpire
p335
aVsidestep
p336
aVvivify
p337
aVship
p338
aVregime
p339
aVnh
p340
aVny
p341
aVtie
p342
aVsmell
p343
aVnaive
p344
aVreconsider
p345
aVasterism
p346
aVlongueur
p347
aVthorax
p348
aVreorganization
p349
aVvietnam
p350
aVtime
p351
aVpush
p352
aVsri_lanka
p353
aVmeander
p354
aVcorps
p355
aVdance
p356
aVrod
p357
aVmanager
p358
aVrecess
p359
aVvitis_vinifera
p360
aVroanoke
p361
aVvex
p362
aVcharge
p363
aVunpleasant
p364
aVtusk
p365
aVdivision
p366
aVprotective
p367
aVstring
p368
aVword
p369
aVexact
p370
aVpious
p371
aVjudaism
p372
aVlohan
p373
aVsolver
p374
aVgun
p375
aVmuscat
p376
aVleave
p377
aVsettle
p378
aVarchaism
p379
aVwork
p380
aVnineties
p381
aVsign
p382
aVcost
p383
aVrudbeckia
p384
aVport
p385
aVfiller
p386
aVportmanteau_word
p387
aVjury
p388
aVden
p389
aVsemiotician
p390
aVunderstanding
p391
aVwater
p392
aVcentime
p393
aVteacher
p394
aVchange
p395
aVwait
p396
aVyemen
p397
aVshift
p398
aVfranklin
p399
aVtransact
p400
aVelect
p401
aVtrinidad
p402
aVsympathetic
p403
aVrussell
p404
aVwrecking
p405
aVpositive
p406
aVbowdlerization
p407
aVscope
p408
aVloving
p409
aVrefrain
p410
aVfly
p411
aVtribunal
p412
aVedible
p413
aVpretend
p414
aVsoul
p415
aVfollowing
p416
aVfauna
p417
aVspiraea
p418
aVclaim
p419
aVfigure
p420
aVattribute
p421
aVjunket
p422
aVdrawer
p423
aVcritic
p424
aVcock_sucking
p425
aVcouncil
p426
aVoffense
p427
aVprovoke
p428
aVmauler
p429
aVdyspnoea
p430
aVinheritance
p431
aVwrite
p432
aVlobe
p433
aVsword
p434
aVelephant
p435
aVhusbandry
p436
aVparameter
p437
aVspud
p438
aVspot
p439
aVdate
p440
aVman
p441
aVstress
p442
aVbadlands
p443
aVconscious
p444
aVtruck
p445
aVtalk
p446
aVserving
p447
aVpointed
p448
aVyears
p449
aVshake
p450
aVjock
p451
aVculmination
p452
aVrelegate
p453
aVvicinity
p454
aVthump
p455
aVmain
p456
aVnorway
p457
aVpetition
p458
aVsundog
p459
aVnation
p460
aVpossess
p461
aVterm
p462
aVplacate
p463
aVsublimate
p464
aVgalloway
p465
aVplunk
p466
aVdrop
p467
aVthymus
p468
aVfishing_rod
p469
aVamnesty
p470
aVquarter
p471
aVtrope
p472
aVretrieve
p473
aVhurried
p474
aVpersian
p475
aVcanada
p476
aVjackson
p477
aVspace
p478
aVhallucinate
p479
aVintermix
p480
aVrational
p481
aVtweeze
p482
aVsiege
p483
aVhull
p484
aVsweet_almond
p485
aVspiel
p486
aVunfriendly
p487
aVontario
p488
aVrebel
p489
aVbarrister
p490
aVturk
p491
aVrecompense
p492
aVswing
p493
aVcharleston
p494
aVturd
p495
aVthink
p496
aVflying
p497
aVclause
p498
aVbare_bones
p499
aVcarry
p500
aVzap
p501
aVinterchange
p502
aVsheet
p503
aVscrummage
p504
aVindicate
p505
aVescort
p506
aVwilliams
p507
aVanus
p508
aVpreponderate
p509
aVtaxation
p510
aVseat
p511
aVinventor
p512
aVwide
p513
aVhong_kong
p514
aVpenal_institution
p515
aVdistill
p516
aVrugger
p517
aVcards
p518
aVwinkle
p519
aVghetto_blaster
p520
aVphysiotherapist
p521
aVportsmouth
p522
aVgenerality
p523
aVdash
p524
aVmechanize
p525
aVturner
p526
aVmusical_notation
p527
aVhandicraft
p528
aVnote
p529
aVtake
p530
aVfracture
p531
aVchannel
p532
aVsurf
p533
aVtastebud
p534
aVhoover
p535
aVpain
p536
aVtrace
p537
aVremunerate
p538
aVtract
p539
aVtracy
p540
aVdrive
p541
aVligustrum
p542
aVsunset
p543
aVprecise
p544
aVwalking
p545
aVshow
p546
aVginseng
p547
aVfriction
p548
aVthreshold
p549
aVtestis
p550
aVprincipality
p551
aVplumb
p552
aVdinette
p553
aVhockey
p554
aVtravesty
p555
aVstain
p556
aVget
p557
aVpaleface
p558
aVunimportant
p559
aVstoma
p560
aVassimilate
p561
aVniagara_falls
p562
aVyield
p563
aVstupid
p564
aVspaniard
p565
aVvarna
p566
aVsear
p567
aVstipulation
p568
aVrelative
p569
aVunfit
p570
aVpacific_northwest
p571
aVsurgery
p572
aVsport
p573
aVisraeli
p574
aVredeemer
p575
aVreview
p576
aVbootleg
p577
aVstaffer
p578
aVreading
p579
aVtoying
p580
aVorchestrate
p581
aVinfrastructure
p582
aVvertical
p583
aVpluck
p584
aVkilling
p585
aVanterior_pituitary_gland
p586
aVisthmus
p587
aVcakewalk
p588
aVcleave
p589
aVinstallation
p590
aVmona
p591
aVrhodes
p592
aVcontract
p593
aVdespond
p594
aVcolony
p595
aVperiod
p596
aVcranium
p597
aVante
p598
aVcrew
p599
aVboat
p600
aVpoa
p601
aVturkey
p602
aVsensible
p603
aVunderworld
p604
aVteddy
p605
aVstretch
p606
aVsuborn
p607
aVmark
p608
aVhirsute
p609
aVlinguistic
p610
aVskeg
p611
aVsisterhood
p612
aVperforming_arts
p613
aVtasteless
p614
aVsanctification
p615
aVwake
p616
aVprecipitate
p617
aVmasonry
p618
aVspirit
p619
aVsound
p620
aVshaft
p621
aVshanty
p622
aVcask
p623
aVpuncher
p624
aVprevalence
p625
aVpurse
p626
aVtelephone
p627
aVstrain
p628
aVgood
p629
aVjackdaw
p630
aVdevelop
p631
aVpaw
p632
aVinquire
p633
aVrelaxant
p634
aVsame
p635
aVepoch
p636
aVpad
p637
aVdocument
p638
aVpatrician
p639
aVfoal
p640
aVminimize
p641
aVsolve
p642
aVactress
p643
aVterpsichorean
p644
aVtouch
p645
aVpolish
p646
aVblow
p647
aVrosa
p648
aVimprovement
p649
aVinstrument
p650
aVastonishment
p651
aVundercover_agent
p652
aVjoyful
p653
aVreal
p654
aVzion
p655
aVvirginia
p656
aVdark
p657
aVleaner
p658
aVtraffic
p659
aVthyme
p660
aVaudience
p661
aVnose
p662
aVsellotape
p663
aVobstruct
p664
aVunrighteous
p665
aVkafir
p666
aVcolonial
p667
aVnook
p668
aVpioneer
p669
aVmoderate
p670
aVknife
p671
aVzest
p672
aVjourneyman
p673
aVfearsomely
p674
aVimmigrate
p675
aVstone
p676
aVisland
p677
aVindustry
p678
aVdibs
p679
aVact
p680
aVsaddam_hussein
p681
aVos
p682
aVimago
p683
aVwhitey
p684
aVspreading
p685
aVrising
p686
aVstrip
p687
aVoperator
p688
aVengland
p689
aVjerusalem
p690
aVshrinking
p691
aVracquet
p692
aVtherm
p693
aVlog
p694
aVvenous_thrombosis
p695
aVarea
p696
aVphiladelphia
p697
aVchristianity
p698
aVsouth_carolina
p699
aVprepuce
p700
aVproject
p701
aVland
p702
aVrosebush
p703
aVnongovernmental_organization
p704
aVpull
p705
aVmarx
p706
aVgrass
p707
aVoxen
p708
aVpolitico
p709
aVtaste
p710
aVfellow
p711
aVquantum
p712
aVtasty
p713
aVpolitics
p714
aVmanagership
p715
aVselfish
p716
aVsomnambulism
p717
aVcleanup
p718
aVsomnambulist
p719
aVpreoccupation
p720
aVseparate
p721
aVnucleus
p722
aVtackle
p723
aVrevolve
p724
aVspouse
p725
aVgroom
p726
aVbarcelona
p727
aVsatirize
p728
aVtreason
p729
aVsensibility
p730
aVwaiver
p731
aVchinese
p732
aVgroundwork
p733
aVthoughtful
p734
aVtectonics
p735
aVcolloquialism
p736
aVsettlement
p737
aVtx
p738
aVforte
p739
aVtt
p740
aVtail
p741
aVspain
p742
aVsalicylic_acid
p743
aVpresentation
p744
aVparcel
p745
aVwad
p746
aVhatching
p747
aVfall
p748
aVticket
p749
aVticker
p750
aVsyracuse
p751
aVnorfolk
p752
aVzygote
p753
aVsang
p754
aVproposition
p755
aVembayment
p756
aVfence
p757
aVrate
p758
aVquebec
p759
aVmill
p760
aVovercompensation
p761
aVdarkness
p762
aVadvantageous
p763
aVsection
p764
aVgreenness
p765
aVcorker
p766
aVwomb
p767
aVbritish_columbia
p768
aVsegmentation
p769
aVchristian
p770
aVmodify
p771
aVbigamist
p772
aVsearch
p773
aVstupor
p774
aVstretching
p775
aVstorefront
p776
aVmaul
p777
aVdogsled
p778
aVnarrow
p779
aVsmuggle
p780
aVfamily
p781
aVafrica
p782
aVgristle
p783
aVmaths
p784
aVlagos
p785
aVrudder
p786
aVeye
p787
aVproceed
p788
aVwarship
p789
aVdistinct
p790
aVirritate
p791
aVwarmhearted
p792
aVsplash
p793
aVinlay
p794
aVbrunswick
p795
aVtheatregoer
p796
aVimmersion
p797
aVquickening
p798
aVexcuse
p799
aVguvnor
p800
aVhinduism
p801
aVnegativity
p802
aVgodown
p803
aVknocker
p804
aVnebraska
p805
aVclergy
p806
aVmale
p807
aVexcursion
p808
aVhistory
p809
aVmel_gibson
p810
aVsuffragist
p811
aVbrown
p812
aVconspire
p813
aVminimum
p814
aVchimera
p815
aVimitation
p816
aVsense
p817
aVphrase
p818
aVpong
p819
aVscar
p820
aVspecies
p821
aVukulele
p822
aVreject
p823
aVsprinkle
p824
aVft
p825
aVwaver
p826
aVplano
p827
aVrationalize
p828
aVregister
p829
aVstash
p830
aVshore
p831
aVwrench
p832
aVjohn
p833
aVmestizo
p834
aVtrade
p835
aVstylus
p836
aVscott
p837
aVhelm
p838
aVexistence
p839
aVturbine
p840
aVsuffer
p841
aVwinger
p842
aVsynecdoche
p843
aVzippo
p844
aVsoccer
p845
aVsauce
p846
aVpolydactyly
p847
aVevening
p848
aVreturn
p849
aVsweeping
p850
aVassociation
p851
aVlimpet
p852
aVwash
p853
aVmujahid
p854
aVphilology
p855
aVendoskeleton
p856
aVpermeation
p857
aVreduce
p858
aVidea
p859
aVexpect
p860
aVripple
p861
aVmagnet
p862
aVflower
p863
aVpsychology
p864
aVwolverine
p865
aVreverend
p866
aVsustain
p867
aVgaza_strip
p868
aVcyclone
p869
aVshrivel
p870
aVparturition
p871
aVexodus
p872
aVinfectious_disease
p873
aVhorse
p874
aVask
p875
aVfaller
p876
aVperceptible
p877
aVdecree_nisi
p878
aVbumper
p879
aVfeed
p880
aVwilder
p881
aVfeel
p882
aVrelate
p883
aVnumber
p884
aVantiquity
p885
aVtotalizer
p886
aVstory
p887
aVscript
p888
aVdivorce
p889
aVinteract
p890
aVseafaring
p891
aVtangency
p892
aVstore
p893
aVrelationship
p894
aVsensitization
p895
aVchair
p896
aVdrunkenness
p897
aVfocusing
p898
aVlegs
p899
aVfrock
p900
aVdouble
p901
aVscandinavian
p902
aVpennsylvania
p903
aVstrengthen
p904
aVdisunion
p905
aVjuice
p906
aVcognizant
p907
aVconcentration
p908
aVsell
p909
aVrefute
p910
aVtarnish
p911
aVscotland
p912
aVmajority
p913
aVbuild
p914
aVplay
p915
aVdayton
p916
aVsignificant
p917
aVwatt
p918
aVfluctuate
p919
aVscreenwriter
p920
aVclear
p921
aVcover
p922
aVchester
p923
aVcolorado_springs
p924
aVsquelch
p925
aVphysics
p926
aVnobility
p927
aVdifferentiate
p928
aVgospels
p929
aVcatholic_church
p930
aVaffix
p931
aVfind
p932
aVruin
p933
aVwriter
p934
aVunhappy
p935
aVcircle
p936
aVporcupine
p937
aVexecutive
p938
aVluke
p939
aVsecular
p940
aVvulgarism
p941
aVprocrastination
p942
aVsierra_leone
p943
aVcrt
p944
aVstratum
p945
aVperfume
p946
aVcommon
p947
aVactivity
p948
aVobscure
p949
aVriver
p950
aVset
p951
aVculture
p952
aVarc
p953
aVsea
p954
aVbark
p955
aVconstellation
p956
aVwain
p957
aVpreparation
p958
aVwop
p959
aVmisjudge
p960
aVincompatibility
p961
aVwog
p962
aVswansea
p963
aVeurope
p964
aVaircraft
p965
aVspaghetti_sauce
p966
aVfranchise
p967
aVzipper
p968
aVinertia
p969
aVsensitive
p970
aVfraternity
p971
aVunclutter
p972
aVbaltimore
p973
aVpendulum
p974
aVpoint
p975
aVsweep
p976
aVimproper
p977
aVchurch
p978
aVvessel
p979
aVconnexion
p980
aVgatherer
p981
aVpatroller
p982
aVvertebrate
p983
aVfootnote
p984
aVpituitary_gland
p985
aVterritory
p986
aVmeeting
p987
aVmercantilism
p988
aVfire
p989
aVcrack
p990
aVmoderation
p991
aVwhitney
p992
aVdeport
p993
aVlook
p994
aVstraight
p995
aVescape_hatch
p996
aVfleet
p997
aVpack
p998
aVswim
p999
aVagitation
p1000
aVbluegrass
p1001
aVastound
p1002
aVrim
p1003
aVmott
p1004
aVcerebrum
p1005
aVrig
p1006
aVrib
p1007
aVpropeller_plane
p1008
aVsantos
p1009
aVitaly
p1010
aVshaw
p1011
aVgrant
p1012
aVshorten
p1013
aVconflict
p1014
aVinterpolation
p1015
aVdevelopment
p1016
aVliterature
p1017
aVoptic
p1018
aVcomprehensive
p1019
aVcigar
p1020
aVcheek
p1021
aVanalysis
p1022
aVlandmark
p1023
aVchemistry
p1024
aVroman_empire
p1025
aVtaiwan
p1026
aVprince
p1027
aVbollard
p1028
aVsnap
p1029
aVsleeper
p1030
aVredeem
p1031
aVsubfamily
p1032
aVspirea
p1033
aVsorting
p1034
aVsubmission
p1035
aVpillar
p1036
aVrider
p1037
aVindication
p1038
aVdisorder
p1039
aVmotor
p1040
aVbrakes
p1041
aVfurbish
p1042
aVconcurring_opinion
p1043
aVuterine_artery
p1044
aVamniocentesis
p1045
aVjewelry
p1046
aVdecision
p1047
aVphysiotherapy
p1048
aVpotentate
p1049
aVvasoconstrictor
p1050
aVtemple
p1051
aVbe
p1052
aVrestrictive
p1053
aVintense
p1054
aVshine
p1055
aVzip
p1056
aVrange
p1057
aVratline
p1058
aVrepair
p1059
aVcolorado
p1060
aVswastika
p1061
aVrecreate
p1062
aVdissatisfaction
p1063
aVvamoose
p1064
aVstatistics
p1065
aVfast
p1066
aVoccupy
p1067
aVmanufacture
p1068
aVplunge
p1069
aVfrost
p1070
aVambulate
p1071
aVatom
p1072
aVforbidding
p1073
aVline
p1074
aVreel
p1075
aVrejection
p1076
aVskull
p1077
aVmaturity
p1078
aVwicked
p1079
aVsimilar
p1080
aVrepulse
p1081
aVpossessor
p1082
aVpsychoanalysis
p1083
aVtakedown
p1084
aVschadenfreude
p1085
aVpeace
p1086
aVnick
p1087
aVvitis
p1088
aVdepartment
p1089
aVrevision
p1090
aVdraw
p1091
aVtrouser
p1092
aVdepolarize
p1093
aVdram
p1094
aVreservation
p1095
aVungulate
p1096
aVhanover
p1097
aVstatesman
p1098
aVorganism
p1099
aVethnic_slur
p1100
aVbuffalo
p1101
aVgamete
p1102
aVunripened
p1103
aVtotem
p1104
aVcomic_book
p1105
aVruminate
p1106
aVsimon
p1107
aVvietnamese
p1108
aVpapist
p1109
aVsend
p1110
aVmetallurgy
p1111
aVshack
p1112
aVmasculine
p1113
aVstable
p1114
aVsuite
p1115
aVtremor
p1116
aVfriendly
p1117
aVtorture
p1118
aVladle
p1119
aVunderscore
p1120
aVreverberate
p1121
aVartery
p1122
aVsplattering
p1123
aVrenascence
p1124
aVtonal
p1125
aVstiff
p1126
aVshock
p1127
aVpopulist
p1128
aVinelegant
p1129
aVpopulism
p1130
aVobesity
p1131
aVthespian
p1132
aVprocurator
p1133
aVedifice
p1134
aVcell
p1135
aVplinth
p1136
aVbird
p1137
aVbody
p1138
aVunderwood
p1139
aVaverment
p1140
aVweirdo
p1141
aVsink
p1142
aVhaulier
p1143
aVcoverlet
p1144
aVphysiology
p1145
aVincinerate
p1146
aVcasing
p1147
aVreceive
p1148
aVlodestar
p1149
aVsurvey
p1150
aVchaste
p1151
aVhydroxy_acid
p1152
aVdisobey
p1153
aVcomposer
p1154
aVduck
p1155
aVsermon
p1156
aVuse
p1157
aVusa
p1158
aVprocrastinate
p1159
aVvehicle
p1160
aVcram
p1161
aVphallus
p1162
aVpossession
p1163
aVpugilism
p1164
aVtrait
p1165
aVtrain
p1166
aVcustomer
p1167
aVlapse
p1168
aVpour
p1169
aVunreal
p1170
aVepithelial_cell
p1171
aVmeet
p1172
aVdissolve
p1173
aVburnup
p1174
aVproof
p1175
aVtap
p1176
aVlock
p1177
aVcommonness
p1178
aVprocurer
p1179
aVlamp
p1180
aVimmoral
p1181
aVprofile
p1182
aVtension
p1183
aVexculpatory
p1184
aVkaki
p1185
aVphilosophy
p1186
aVcollection
p1187
aVsavoy
p1188
aVprance
p1189
aVcommunicator
p1190
aVcounter
p1191
aVelement
p1192
aVwrit
p1193
aVeventide
p1194
aVbairn
p1195
aVproducer
p1196
aVmove
p1197
aVhumaneness
p1198
aVsucralfate
p1199
aVobeisance
p1200
aVlinguistics
p1201
aVshaking_palsy
p1202
aVpawpaw
p1203
aVpermanent
p1204
aVhoffman
p1205
aVweber
p1206
aVjunction
p1207
aVmaterial
p1208
aVnihil
p1209
aVfront
p1210
aVrotation
p1211
aVextortionist
p1212
aVfiddle
p1213
aVtrap
p1214
aVpersia
p1215
aVwilde
p1216
aVkriti
p1217
aVthwart
p1218
aVbedstead
p1219
aVsociety
p1220
aVparcelling
p1221
aVhuntington
p1222
aVwander
p1223
aVrex
p1224
aVmatrix
p1225
aVvalve
p1226
aVstub
p1227
aVmate
p1228
aVplayground
p1229
aVhonorable
p1230
aVelectronics
p1231
aVfranc
p1232
aVmusculus
p1233
aVpharmacopoeia
p1234
aVsurely
p1235
aVcatacomb
p1236
aVinitialize
p1237
aVyard
p1238
aVgeometry
p1239
aVparaphernalia
p1240
aVyarn
p1241
aVlength
p1242
aVstimulate
p1243
aVscarf
p1244
aVplainly
p1245
aVfelicitous
p1246
aVprang
p1247
aVteacake
p1248
aVdramatis_personae
p1249
aVmotorcar
p1250
aVpalestine
p1251
aVembryology
p1252
aVprong
p1253
aVhydrosphere
p1254
aVexplanation
p1255
aVbed
p1256
aVreproduction
p1257
aVlover
p1258
aVsteep
p1259
aVfalse
p1260
aVringer
p1261
aVdiffusor
p1262
aVpartnership
p1263
aVuganda
p1264
aVthroat
p1265
aVcatholic
p1266
aVangle
p1267
aVcarrycot
p1268
aVaberdeen
p1269
aVbest
p1270
aVneaten
p1271
aVgreek_mythology
p1272
aVwetback
p1273
aVrefocusing
p1274
aVdevice
p1275
aVclasp
p1276
aVparisian
p1277
aVupset
p1278
aVface
p1279
aVproceedings
p1280
aVvernacular
p1281
aValternator
p1282
aVselection
p1283
aVterminate
p1284
aVterra_firma
p1285
aVdissociate
p1286
aVconvergence
p1287
aVlloyd
p1288
aVindustrialist
p1289
aVeconomist
p1290
aVsupporter
p1291
aVstaff
p1292
aVloveable
p1293
aVpause
p1294
aVnga
p1295
aVjaw
p1296
aVdramatize
p1297
aVpickup
p1298
aVlibra
p1299
aVjak
p1300
aVriding
p1301
aVrighteousness
p1302
aVbeat
p1303
aVphotography
p1304
aVbear
p1305
aVsuer
p1306
aVorgan
p1307
aVohio
p1308
aVdiscontentment
p1309
aVbtu
p1310
aVconform
p1311
aVomission
p1312
aVendometrium
p1313
aVsan_antonio
p1314
aVstate
p1315
aVmembrane
p1316
aVprogress
p1317
aVtrifle
p1318
aVtranspose
p1319
aVswank
p1320
aVspoil
p1321
aVdrum
p1322
aVramp
p1323
aVdrug
p1324
aVsnowfall
p1325
aVwalk
p1326
aVharpoon
p1327
aVrespect
p1328
aVtechnologist
p1329
aVunhappiness
p1330
aVtread
p1331
aVbunfight
p1332
aVtrademark
p1333
aVmoneyman
p1334
aVliverpool
p1335
aVgeneral
p1336
aVconeflower
p1337
aVsmoking
p1338
aVbrunch
p1339
aVtoasting
p1340
aVpresent
p1341
aVcacophonous
p1342
aVirregular
p1343
aVrunway
p1344
aVpretentious
p1345
aVwild
p1346
aVwile
p1347
aVhandwriting
p1348
aVmagnetize
p1349
aVpiloting
p1350
aVpermeate
p1351
aVpolestar
p1352
aVdissent
p1353
aVunintelligent
p1354
aVsurface
p1355
aVyardmaster
p1356
aVpartner
p1357
aVportray
p1358
aVwatchful
p1359
aVdenial
p1360
aVtweezer
p1361
aVmatthew
p1362
aVasana
p1363
aVpowell
p1364
aVball
p1365
aVbali
p1366
aVretard
p1367
aVcontest
p1368
aVpremiership
p1369
aVpanzer
p1370
aVdiversify
p1371
aVdrawing
p1372
aVproximity
p1373
aVmandate
p1374
aVobtain
p1375
aVliquify
p1376
aVrambler
p1377
aVsupply
p1378
aVgenus_homo
p1379
aVlake
p1380
aVcitizen
p1381
aVpersimmon
p1382
aVmatch
p1383
aVtizzy
p1384
aVjudiciary
p1385
aVroyalty
p1386
aVintersection
p1387
aVlincoln
p1388
aVimmunology
p1389
aVbermudas
p1390
aVcorrelation_coefficient
p1391
aVdining_room
p1392
aVpage
p1393
aVheel
p1394
aVitalian
p1395
aVpropel
p1396
aVimmortal
p1397
aVhair
p1398
aVhome
p1399
aVsupportive
p1400
aVtrainman
p1401
aVshrub
p1402
aVarcheology
p1403
aViciness
p1404
aVphilosopher
p1405
aVheat_shield
p1406
aVleader
p1407
aVregain
p1408
aVbiology
p1409
aVacronym
p1410
aVexpansion
p1411
aVworthy
p1412
aVnoisy
p1413
aVinconsiderate
p1414
aVsister
p1415
aVsocket
p1416
aVswear
p1417
aVinsufficient
p1418
aVtongue
p1419
aVcommonwealth
p1420
aVwilderness
p1421
aVwashington
p1422
aVguard
p1423
aVrelinquishment
p1424
aVbrush
p1425
aVfemale
p1426
aVlawful
p1427
aVtabernacle
p1428
aVgurgle
p1429
aVyankee
p1430
aVgrapevine
p1431
aVcondense
p1432
aVbuy
p1433
aVnorth
p1434
aVpreceptor
p1435
aVhi
p1436
aVgrate
p1437
aVrectum
p1438
aVeat
p1439
aVtracheotomy
p1440
aVwish
p1441
aVmarketplace
p1442
aVkowtow
p1443
aVrecognize
p1444
aVtally
p1445
aVpig
p1446
aVerie
p1447
aVvariety
p1448
aVoffensive
p1449
aVbook
p1450
aVsick
p1451
aVroleplay
p1452
aVstay
p1453
aVscintillate
p1454
aVmorse_code
p1455
aVthermonuclear_warhead
p1456
aVrule
p1457
aVportion
p1458
atRp1459
sS'rel'
p1460
g3
((lp1461
V_member_of_domain_topic
p1462
aV_member_meronym
p1463
aV_derivationally_related_form
p1464
aV_similar_to
p1465
aV_hypernym
p1466
aV_member_holonym
p1467
aV_member_of_domain_usage
p1468
aV_instance_hypernym
p1469
aV_synset_domain_usage_of
p1470
aV_instance_hyponym
p1471
aV_has_part
p1472
aV_part_of
p1473
atRp1474
s.