(dp1
S'ent'
p2
c__builtin__
set
p3
((lp4
Vconcept:city:st__petersburg
p5
aVconcept:politicalparty:tacoda
p6
aVconcept:book:old_curiosity_shop
p7
aVconcept:airport:minneapolis
p8
aVconcept:website:ny
p9
aVconcept:stateorprovince:arkansas
p10
aVconcept:website:topics
p11
aVconcept:ceo:lowell_mcadam
p12
aVconcept:coach:josh_mcdaniels
p13
aVconcept:sportsteam:new_england_patriots
p14
aVconcept:city:cape_girardeau
p15
aVconcept:politicsblog:yankee
p16
aVconcept:website:yahoo
p17
aVconcept:book:sula
p18
aVconcept:governmentorganization:federal_reserve
p19
aVconcept:stateorprovince:auburn
p20
aVconcept:musicalbum:contact
p21
aVconcept:sportsteam:boston_college_eagles
p22
aVconcept:musician:hermann_hesse
p23
aVconcept:journalist:kyra_phillips
p24
aVconcept:city:lafayette
p25
aVconcept:politicianus:john_mccain
p26
aVconcept:musicartist:good_charlotte
p27
aVconcept:radiostation:columbus
p28
aVconcept:city:sources
p29
aVconcept:room:unit
p30
aVconcept:hospital:neighborhood
p31
aVconcept:book:huckleberry_finn
p32
aVconcept:sportsteam:tulsa_golden_hurricane
p33
aVconcept:bank:capital_one
p34
aVconcept:race:test
p35
aVconcept:book:summer
p36
aVconcept:room:one_bedroom
p37
aVconcept:book:new
p38
aVconcept:stateorprovince:new_mexico
p39
aVconcept:programminglanguage:conferences
p40
aVconcept:city:aurora
p41
aVconcept:airport:heathrow_airport
p42
aVconcept:city:lebanon
p43
aVconcept:city:san_angelo
p44
aVconcept:journalist:forum
p45
aVconcept:governmentorganization:directory
p46
aVconcept:highway:trenton
p47
aVconcept:personus:dan_brown
p48
aVconcept:governmentorganization:data
p49
aVconcept:stateorprovince:programs
p50
aVconcept:company:eds
p51
aVconcept:radiostation:job
p52
aVconcept:sportsteam:dallas_cowboys
p53
aVconcept:island:staff
p54
aVconcept:stateorprovince:events
p55
aVconcept:person:welch001
p56
aVconcept:city:white_plains
p57
aVconcept:software:word
p58
aVconcept:stateorprovince:line
p59
aVconcept:country:belgium
p60
aVconcept:city:harrisonburg
p61
aVconcept:coach:randy_walker
p62
aVconcept:person:jorma_ollila
p63
aVconcept:person:tom_lasorda001
p64
aVconcept:person:robinson
p65
aVconcept:beach:connecticut
p66
aVconcept:sportsteam:yankee
p67
aVconcept:personus:thomas_hardy
p68
aVconcept:publication:nyt
p69
aVconcept:person:lord
p70
aVconcept:radiostation:north_carolina
p71
aVconcept:book:king_john
p72
aVconcept:city:service
p73
aVconcept:book:dead_souls
p74
aVconcept:city:new_brunswick
p75
aVconcept:politicsblog:new_york_times
p76
aVconcept:city:san_marcos
p77
aVconcept:sportsteam:south_dakota_state
p78
aVconcept:personus:dan_glickman
p79
aVconcept:website:trip
p80
aVconcept:animal:birds001
p81
aVconcept:person:jeff_zucker
p82
aVconcept:city:london
p83
aVconcept:sportsteam:new_york_giants
p84
aVconcept:personus:george_eliot
p85
aVconcept:sportsteam:harvard
p86
aVconcept:ceo:peter_chernin
p87
aVconcept:island:rutland
p88
aVconcept:athlete:curtis_granderson
p89
aVconcept:book:a_prayer_for_owen_meany_a_novel
p90
aVconcept:sportsteam:green_bay_packers
p91
aVconcept:stateorprovince:times
p92
aVconcept:coach:pete_carroll
p93
aVconcept:hallwayitem:frame
p94
aVconcept:city:garden_grove
p95
aVconcept:stateorprovince:north_dakota
p96
aVconcept:city:home
p97
aVconcept:coach:ron_zook
p98
aVconcept:sportsteam:georgia_state_panthers
p99
aVconcept:stateorprovince:investors
p100
aVconcept:personnorthamerica:nathanael_west
p101
aVconcept:politicsblog:story
p102
aVconcept:coach:new_york_jets
p103
aVconcept:county:crossroads
p104
aVconcept:coach:flip_saunders
p105
aVconcept:city:germantown
p106
aVconcept:person:thomas_friedman
p107
aVconcept:personmexico:texas_rangers
p108
aVconcept:city:chico
p109
aVconcept:city:shanghai
p110
aVconcept:city:miami
p111
aVconcept:book:peer_gynt
p112
aVconcept:sportsteam:texans
p113
aVconcept:ceo:john_varley
p114
aVconcept:book:middlemarch
p115
aVconcept:coach:eric_mangini
p116
aVconcept:celebrity:terms
p117
aVconcept:person:lane_kiffin
p118
aVconcept:city:birmingham
p119
aVconcept:person:paul_ince
p120
aVconcept:skiarea:farmington
p121
aVconcept:geopoliticalorganization:customers
p122
aVconcept:room:standard
p123
aVconcept:stateorprovince:georgia
p124
aVconcept:politicianus:details
p125
aVconcept:book:the_catcher_in_the_rye
p126
aVconcept:company:washington
p127
aVconcept:vertebrate:large_animals
p128
aVconcept:stateorprovince:michigan
p129
aVconcept:coach:jeff_jagodzinski
p130
aVconcept:personeurope:thornton_wilder
p131
aVconcept:recordlabel:release
p132
aVconcept:ceo:sam_zell
p133
aVconcept:company:ford_motor
p134
aVconcept:geopoliticallocation:manchester
p135
aVconcept:movie:the_maltese_falcon
p136
aVconcept:company:viacom
p137
aVconcept:book:the_stranger
p138
aVconcept:mammal:horses
p139
aVconcept:country:saudi_arabia
p140
aVconcept:politicianus:h__ross_perot
p141
aVconcept:sportsteam:cent_michigan_chippewas
p142
aVconcept:sportsteam:milwaukee_brewers
p143
aVconcept:personus:w__somerset_maugham
p144
aVconcept:website:telephone
p145
aVconcept:county:chrysler
p146
aVconcept:stateorprovince:new_york
p147
aVconcept:personus:l__frank_baum
p148
aVconcept:writer:wallace_stegner
p149
aVconcept:website:months
p150
aVconcept:coach:vince_lombardi
p151
aVconcept:book:david_copperfield
p152
aVconcept:city:tulare
p153
aVconcept:person:jagodzinski
p154
aVconcept:weatherphenomenon:water
p155
aVconcept:musicartist:tickets
p156
aVconcept:stateorprovince:function
p157
aVconcept:book:publisher
p158
aVconcept:city:freiburg
p159
aVconcept:county:new_york_yankee
p160
aVconcept:magazine:slate
p161
aVconcept:book:brothers_karamazov
p162
aVconcept:coach:jim_schwartz
p163
aVconcept:musicartist:times
p164
aVconcept:coach:hank_stram
p165
aVconcept:athlete:houston_astros
p166
aVconcept:athlete:reports
p167
aVconcept:eventoutcome:title
p168
aVconcept:city:montgomery
p169
aVconcept:professionalorganization:na
p170
aVconcept:coach:dick_brown
p171
aVconcept:personasia:richard_fain
p172
aVconcept:sportsgame:championship
p173
aVconcept:sportsteam:duke_blue_devils
p174
aVconcept:city:sterling
p175
aVconcept:person:coulthard
p176
aVconcept:sportsteam:new_jersey_nets
p177
aVconcept:book:grapes_of_wrath
p178
aVconcept:personasia:number
p179
aVconcept:country:australia
p180
aVconcept:actor:information
p181
aVconcept:company:fedex
p182
aVconcept:city:novato
p183
aVconcept:journalist:frank_reynolds
p184
aVconcept:museum:cooperstown
p185
aVconcept:sportsteam:tampa
p186
aVconcept:room:basement
p187
aVconcept:governmentorganization:numbers
p188
aVconcept:automobilemaker:announcement
p189
aVconcept:sportsteam:ashland_eagles
p190
aVconcept:governmentorganization:government
p191
aVconcept:city:form
p192
aVconcept:scientist:today
p193
aVconcept:athlete:glen_sather
p194
aVconcept:city:centre
p195
aVconcept:city:college
p196
aVconcept:website:stage
p197
aVconcept:country:brazil
p198
aVconcept:person:button
p199
aVconcept:stateorprovince:nevada
p200
aVconcept:stateorprovince:hawaii
p201
aVconcept:writer:isaac_asimov_
p202
aVconcept:book:the_da_vinci_code
p203
aVconcept:politicianus:ellison
p204
aVconcept:stateorprovince:rhode_island
p205
aVconcept:city:san_antonio_texas
p206
aVconcept:athlete:jeff_suppan
p207
aVconcept:coach:virginia_tech
p208
aVconcept:stateorprovince:texas
p209
aVconcept:mlauthor:head
p210
aVconcept:city:brussels
p211
aVconcept:politicianus:certification
p212
aVconcept:sportsteam:chargers
p213
aVconcept:retailstore:kings
p214
aVconcept:sportsgame:championships
p215
aVconcept:architect:henry_james
p216
aVconcept:book:the_moonstone
p217
aVconcept:athlete:jeff_kent
p218
aVconcept:website:fox_news
p219
aVconcept:city:williams
p220
aVconcept:island:selection
p221
aVconcept:person:lou_dobbs
p222
aVconcept:sportsteam:ga_tech_yellow_jackets
p223
aVconcept:sportsteam:coastal_carolina_chanticleers
p224
aVconcept:sportsteam:new_mexico_state_aggies
p225
aVconcept:room:new
p226
aVconcept:person:sills
p227
aVconcept:personus:alexandre_dumas
p228
aVconcept:personus:kurt_vonnegut
p229
aVconcept:sportsteam:new_york_mets
p230
aVconcept:stateorprovince:connecticut
p231
aVconcept:city:pictures
p232
aVconcept:sportsteam:northern_iowa_panthers
p233
aVconcept:politicianus:hillary
p234
aVconcept:book:nicholas_nickleby
p235
aVconcept:journalist:bill_keller
p236
aVconcept:company:verizon001
p237
aVconcept:ceo:muhtar_kent
p238
aVconcept:academicfield:documents
p239
aVconcept:book:insomnia
p240
aVconcept:governmentorganization:applications
p241
aVconcept:movie:a_clockwork_orange
p242
aVconcept:trainstation:hickory
p243
aVconcept:university:harvard
p244
aVconcept:city:hong_kong_island
p245
aVconcept:stateorprovince:images
p246
aVconcept:city:bremerton
p247
aVconcept:river:anderson
p248
aVconcept:movie:timeline
p249
aVconcept:televisionshow:anne_of_green_gables
p250
aVconcept:landscapefeatures:firm
p251
aVconcept:person:riley001
p252
aVconcept:sportsteam:arizona_st__sun_devils
p253
aVconcept:athlete:jason_garrett
p254
aVconcept:city:alameda
p255
aVconcept:city:pawtucket
p256
aVconcept:book:lost_world
p257
aVconcept:city:texarkana
p258
aVconcept:amphibian:figures
p259
aVconcept:magazine:time
p260
aVconcept:country:india
p261
aVconcept:company:lufthansa_technik
p262
aVconcept:stateorprovince:south_dakota
p263
aVconcept:ceo:nardelli
p264
aVconcept:book:lysistrata
p265
aVconcept:person:woody_hayes
p266
aVconcept:county:toronto
p267
aVconcept:person:ken_lewis
p268
aVconcept:city:nj
p269
aVconcept:city:danbury
p270
aVconcept:person:jack_welch
p271
aVconcept:athlete:dee_brown
p272
aVconcept:politicianus:pete_v__domenici
p273
aVconcept:ceo:john_mackey
p274
aVconcept:stateorprovince:bahamas
p275
aVconcept:book:alliance
p276
aVconcept:sportsleague:syracuse
p277
aVconcept:ceo:vijay_mallya
p278
aVconcept:stateorprovince:maryland
p279
aVconcept:ceo:gerald_levin
p280
aVconcept:book:home
p281
aVconcept:room:two
p282
aVconcept:personus:henrik_ibsen
p283
aVconcept:visualartist:detail
p284
aVconcept:company:fox
p285
aVconcept:city:carson
p286
aVconcept:scientist:email
p287
aVconcept:sportsteam:princeton
p288
aVconcept:stateorprovince:minnesota
p289
aVconcept:actor:changes
p290
aVconcept:room:loft
p291
aVconcept:ceo:stanley_o_neal
p292
aVconcept:movie:rebecca
p293
aVconcept:musicalbum:press
p294
aVconcept:park:kingston
p295
aVconcept:room:private_bath
p296
aVconcept:room:twin_beds
p297
aVconcept:stateorprovince:ontario
p298
aVconcept:person:andy001
p299
aVconcept:bridge:new_jersey
p300
aVconcept:coach:jon_gruden
p301
aVconcept:book:the_wonderful_wizard_of_oz
p302
aVconcept:sportsteam:kansas_city_royals
p303
aVconcept:ceo:terry_semel
p304
aVconcept:ceo:jamie_dimon
p305
aVconcept:website:linkedin
p306
aVconcept:person:alex_rodriguez
p307
aVconcept:city:cypress
p308
aVconcept:journalist:richard_sandomir
p309
aVconcept:personaustralia:albert_camus
p310
aVconcept:coach:terry_porter
p311
aVconcept:sportsteam:brazil
p312
aVconcept:person:spurrier
p313
aVconcept:person:fred_kaplan
p314
aVconcept:ceo:gerard_arpey
p315
aVconcept:stateorprovince:ads
p316
aVconcept:country:lithuania
p317
aVconcept:bank:jp_morgan_chase
p318
aVconcept:coach:ron_wilson
p319
aVconcept:celebrity:human_body
p320
aVconcept:person:john
p321
aVconcept:magazine:site
p322
aVconcept:book:a_connecticut_yankee_in_king_arthur_s_court
p323
aVconcept:coach:scott_linehan
p324
aVconcept:creditunion:delaware
p325
aVconcept:building:the_mirage
p326
aVconcept:personus:franz_kafka
p327
aVconcept:city:merrill
p328
aVconcept:stateorprovince:nebraska
p329
aVconcept:country:portugal
p330
aVconcept:personus:fyodor_dostoevsky
p331
aVconcept:mlarea:call
p332
aVconcept:personaustralia:william_shakespeare
p333
aVconcept:university:google
p334
aVconcept:book:magician
p335
aVconcept:personus:kerry
p336
aVconcept:person:brian_kelly
p337
aVconcept:city:baldwin_park
p338
aVconcept:governmentorganization:industry
p339
aVconcept:automobilemaker:victory
p340
aVconcept:room:bedroom
p341
aVconcept:ceo:lloyd_blankfein
p342
aVconcept:city:pine_bluff
p343
aVconcept:sportsteam:lees_mcrae_bobcats
p344
aVconcept:country:italy
p345
aVconcept:mammal:mals
p346
aVconcept:book:the_stand
p347
aVconcept:personus:neil_gaiman
p348
aVconcept:person:nicolas_sarkozy
p349
aVconcept:stateorprovince:house
p350
aVconcept:personcanada:john_steinbeck
p351
aVconcept:athlete:lou_gehrig
p352
aVconcept:university:kentucky
p353
aVconcept:person:scott
p354
aVconcept:biotechcompany:news_corp
p355
aVconcept:stateorprovince:virgin
p356
aVconcept:book:the_power_and_the_glory
p357
aVconcept:personus:york
p358
aVconcept:city:arkansas
p359
aVconcept:bodypart:lower_body
p360
aVconcept:journalist:nicholas_wade
p361
aVconcept:eventoutcome:win
p362
aVconcept:color:attack
p363
aVconcept:company:virgin_atlantic
p364
aVconcept:coach:parcells
p365
aVconcept:website:support
p366
aVconcept:website:united_nations
p367
aVconcept:person:yang
p368
aVconcept:ceo:win_bischoff
p369
aVconcept:transportation:ge
p370
aVconcept:ceo:redstone
p371
aVconcept:city:victorville
p372
aVconcept:city:midland
p373
aVconcept:personus:sir_arthur_conan_doyle
p374
aVconcept:room:sitting_room
p375
aVconcept:geopoliticallocation:white
p376
aVconcept:person:iowa
p377
aVconcept:website:lycos
p378
aVconcept:book:harry_potter_and_the_prisoner_of_azkaban
p379
aVconcept:stateorprovince:oregon
p380
aVconcept:website:louisville
p381
aVconcept:organization:tigers
p382
aVconcept:visualartist:links
p383
aVconcept:book:the_mists_of_avalon
p384
aVconcept:person:white
p385
aVconcept:person:benji_madden
p386
aVconcept:book:the_idiot
p387
aVconcept:website:technorati
p388
aVconcept:city:apartment
p389
aVconcept:personafrica:nikolai_gogol
p390
aVconcept:sportsteam:bucs
p391
aVconcept:director:meyer
p392
aVconcept:ceo:larry_kellner
p393
aVconcept:personafrica:john_grisham
p394
aVconcept:city:banning
p395
aVconcept:city:dallas
p396
aVconcept:radiostation:detroit
p397
aVconcept:scientist:position
p398
aVconcept:city:toms_river_township
p399
aVconcept:beach:naples
p400
aVconcept:product:minister
p401
aVconcept:museum:franklin
p402
aVconcept:personus:joseph_conrad
p403
aVconcept:organization:city_opera
p404
aVconcept:book:herzog
p405
aVconcept:book:trial
p406
aVconcept:writer:knight
p407
aVconcept:movie:a_streetcar_named_desire
p408
aVconcept:newspaper:blackburn
p409
aVconcept:personus:vladimir_nabokov
p410
aVconcept:sportsteam:uic_flames
p411
aVconcept:island:investment
p412
aVconcept:book:bleak_house
p413
aVconcept:shoppingmall:princeton
p414
aVconcept:reptile:pets
p415
aVconcept:city:advice
p416
aVconcept:airport:little_rock
p417
aVconcept:county:health
p418
aVconcept:website:boston_globe
p419
aVconcept:person:mickey_mantle
p420
aVconcept:coach:doug_marrone
p421
aVconcept:crustacean:shrimp
p422
aVconcept:organization:hall_of_fame
p423
aVconcept:bird:yankees
p424
aVconcept:programminglanguage:email
p425
aVconcept:furniture:mattress
p426
aVconcept:skiarea:maine
p427
aVconcept:book:pale_fire
p428
aVconcept:furniture:vanities
p429
aVconcept:book:siddhartha
p430
aVconcept:musicartist:ac_dc
p431
aVconcept:personus:j__r__r__tolkien
p432
aVconcept:sportsteam:santa_clara_broncos
p433
aVconcept:stateorprovince:woman
p434
aVconcept:sportsteam:sj_sharks
p435
aVconcept:city:turlock
p436
aVconcept:skiarea:combination
p437
aVconcept:date:n1999
p438
aVconcept:personasia:site
p439
aVconcept:museum:years
p440
aVconcept:university:arkansas_little_rock_trojans
p441
aVconcept:city:porterville
p442
aVconcept:date:n1996
p443
aVconcept:vehicle:water
p444
aVconcept:city:youngstown
p445
aVconcept:sportsgame:series_title
p446
aVconcept:book:angels___demons
p447
aVconcept:city:mansfield
p448
aVconcept:room:area
p449
aVconcept:room:setting
p450
aVconcept:musicinstrument:africa
p451
aVconcept:company:rccl
p452
aVconcept:person:phil_knight
p453
aVconcept:city:cleveland
p454
aVconcept:city:katy
p455
aVconcept:reptile:three
p456
aVconcept:coach:brian_france
p457
aVconcept:book:we_have_always_lived_in_the_castle
p458
aVconcept:sportsteam:brown_bears
p459
aVconcept:biotechcompany:amr_corp
p460
aVconcept:county:high_school
p461
aVconcept:city:tampa_bay
p462
aVconcept:sportsteam:arkansas_st__red_wolves
p463
aVconcept:personus:marion_zimmer_bradley
p464
aVconcept:city:philly
p465
aVconcept:city:kailua
p466
aVconcept:website:homes
p467
aVconcept:city:bush
p468
aVconcept:book:kidnapped
p469
aVconcept:organization:senate
p470
aVconcept:sportsgame:result
p471
aVconcept:book:twelfth_night
p472
aVconcept:book:cujo
p473
aVconcept:city:place
p474
aVconcept:person:michael_dell
p475
aVconcept:sportsteam:radford_highlanders
p476
aVconcept:geopoliticallocation:york_state
p477
aVconcept:furniture:single_beds
p478
aVconcept:magazine:way
p479
aVconcept:city:hit
p480
aVconcept:county:bay_area
p481
aVconcept:sportsteam:virginia_tech_hokies
p482
aVconcept:sportsteam:phoenix_suns
p483
aVconcept:sportsteam:miami_hurricanes
p484
aVconcept:website:__google
p485
aVconcept:stateorprovince:tennessee
p486
aVconcept:city:garner
p487
aVconcept:writer:jk_rowling
p488
aVconcept:person:dave_morgan
p489
aVconcept:musicartist:bottom
p490
aVconcept:city:porto_alegre
p491
aVconcept:stateorprovince:logo
p492
aVconcept:personus:gabriel_garcia_marquez
p493
aVconcept:book:bluest_eye
p494
aVconcept:personus:dean_koontz
p495
aVconcept:programminglanguage:application
p496
aVconcept:city:brunswick
p497
aVconcept:hallwayitem:window
p498
aVconcept:transportation:two
p499
aVconcept:writer:murdoch
p500
aVconcept:ceo:reid_hoffman
p501
aVconcept:company:uzbekistan_airways
p502
aVconcept:bird:finches
p503
aVconcept:politicianus:george_w__bush
p504
aVconcept:ceo:richard_wagoner
p505
aVconcept:company:halliburton
p506
aVconcept:organization:blue_jays
p507
aVconcept:sportsteam:ohio_state_university
p508
aVconcept:athlete:danny_ferry
p509
aVconcept:website:description
p510
aVconcept:company:parents
p511
aVconcept:musicalbum:request
p512
aVconcept:county:rhode_island
p513
aVconcept:book:lady_chatterley_s_lover
p514
aVconcept:sportsteam:new_paltz_hawks
p515
aVconcept:city:burbank
p516
aVconcept:dateliteral:n1990
p517
aVconcept:book:lord_jim
p518
aVconcept:politicianus:vice_president_al_gore
p519
aVconcept:city:madrid
p520
aVconcept:room:guestrooms
p521
aVconcept:website:time_warner
p522
aVconcept:comedian:image
p523
aVconcept:criminal:suggestions
p524
aVconcept:biotechcompany:coca_cola
p525
aVconcept:comedian:howard_stringer
p526
aVconcept:city:columbus
p527
aVconcept:newspaper:idaho
p528
aVconcept:museum:richard_branson
p529
aVconcept:radiostation:canton
p530
aVconcept:city:washington
p531
aVconcept:city:resources
p532
aVconcept:city:roswell
p533
aVconcept:company:exxon
p534
aVconcept:ceo:hank_mckinnell
p535
aVconcept:personus:d__h__lawrence
p536
aVconcept:personus:anthony_burgess
p537
aVconcept:politicalparty:process
p538
aVconcept:blog:background
p539
aVconcept:country:finland
p540
aVconcept:personnorthamerica:james
p541
aVconcept:person:spagnuolo
p542
aVconcept:person:phone
p543
aVconcept:county:florence
p544
aVconcept:country:the_dominican_republic
p545
aVconcept:sportsteam:vermont_catamounts
p546
aVconcept:city:sheboygan
p547
aVconcept:city:glendora
p548
aVconcept:person:john003
p549
aVconcept:creditunion:kansas
p550
aVconcept:room:terrace
p551
aVconcept:book:odd_thomas
p552
aVconcept:city:abc
p553
aVconcept:product:tab
p554
aVconcept:sportsteam:red_sox
p555
aVconcept:person:dad
p556
aVconcept:country:the_usa
p557
aVconcept:publication:sunday_business_post
p558
aVconcept:governmentorganization:department
p559
aVconcept:person:dan
p560
aVconcept:company:forbes001
p561
aVconcept:city:encinitas
p562
aVconcept:chef:eds
p563
aVconcept:stadiumoreventvenue:giants_stadium
p564
aVconcept:country:croatia
p565
aVconcept:ceo:john_donahoe
p566
aVconcept:sportsteam:siena_saints
p567
aVconcept:personus:james_fenimore_cooper
p568
aVconcept:animal:marlins
p569
aVconcept:trainstation:fall
p570
aVconcept:city:delhi
p571
aVconcept:shoppingmall:rialto
p572
aVconcept:journalist:william_kristol
p573
aVconcept:animal:animals001
p574
aVconcept:building:royal
p575
aVconcept:website:aol
p576
aVconcept:company:citigroup
p577
aVconcept:person:bernie_williams
p578
aVconcept:currency:home_contact
p579
aVconcept:personus:question
p580
aVconcept:book:the_merchant_of_venice
p581
aVconcept:university:vermont
p582
aVconcept:landscapefeatures:hot_water
p583
aVconcept:sportsteam:miami_heat
p584
aVconcept:personus:dashiell_hammett
p585
aVconcept:island:paul
p586
aVconcept:musicartist:journal
p587
aVconcept:personus:oscar_wilde
p588
aVconcept:musicalbum:life
p589
aVconcept:country:usa
p590
aVconcept:hotel:residence
p591
aVconcept:radiostation:new_jersey
p592
aVconcept:stateorprovince:idaho
p593
aVconcept:person:trong
p594
aVconcept:city:torrance
p595
aVconcept:island:rodriguez
p596
aVconcept:stateorprovince:vermont
p597
aVconcept:geopoliticalorganization:web_site
p598
aVconcept:programminglanguage:process
p599
aVconcept:company:yahoo
p600
aVconcept:book:a_time_to_kill
p601
aVconcept:sportsteam:loyola_greyhounds
p602
aVconcept:athlete:john_tortorella
p603
aVconcept:sportsteam:long_island_blackbirds
p604
aVconcept:city:kandahar
p605
aVconcept:book:my_antonia
p606
aVconcept:county:monterey
p607
aVconcept:sportsteam:edmonton_oilers
p608
aVconcept:city:panama_city
p609
aVconcept:personus:justin_miller
p610
aVconcept:architect:application
p611
aVconcept:personus:jrr_tolkien
p612
aVconcept:sportsteam:sox
p613
aVconcept:musicartist:policy
p614
aVconcept:criminal:jeffrey_skilling
p615
aVconcept:jobposition:national_assembly
p616
aVconcept:book:crime_and_punishment
p617
aVconcept:company:ge
p618
aVconcept:city:san_francisco
p619
aVconcept:company:clinton
p620
aVconcept:musicalbum:child
p621
aVconcept:landscapefeatures:uk
p622
aVconcept:ceo:john_sculley
p623
aVconcept:company:new_york
p624
aVconcept:musicalbum:foundation
p625
aVconcept:automobilemaker:listing
p626
aVconcept:city:band
p627
aVconcept:personus:robert_heinlein
p628
aVconcept:book:hogfather
p629
aVconcept:person:mark
p630
aVconcept:museum:e_mail
p631
aVconcept:room:separate_living
p632
aVconcept:musicartist:questions
p633
aVconcept:person:clint_eastwood
p634
aVconcept:sportsteam:oregon_state_university
p635
aVconcept:retailstore:apple_computer
p636
aVconcept:room:spacious_living_room
p637
aVconcept:county:celebration
p638
aVconcept:book:the_day_of_the_locust
p639
aVconcept:person:bill
p640
aVconcept:sportsteam:western_kentucky_hilltoppers
p641
aVconcept:athlete:jair_jurrjens
p642
aVconcept:personus:anne_bronte
p643
aVconcept:book:three_musketeers
p644
aVconcept:city:honolulu
p645
aVconcept:sportsleague:nascar
p646
aVconcept:personaustralia:grant
p647
aVconcept:sportsteam:kansas_city_chiefs
p648
aVconcept:sportsteam:peninsula_college
p649
aVconcept:sportsgame:visitors
p650
aVconcept:sportsleague:new
p651
aVconcept:sportsteam:carolina_panthers
p652
aVconcept:sportsteam:latter_day_saints_business_college
p653
aVconcept:celebrity:wozniak
p654
aVconcept:actor:doug_parker
p655
aVconcept:city:columbia
p656
aVconcept:geopoliticalorganization:amherst
p657
aVconcept:sportsteam:st___louis_hawks
p658
aVconcept:automobilemodel:plugin
p659
aVconcept:automobilemaker:general_motors
p660
aVconcept:stadiumoreventvenue:new
p661
aVconcept:athlete:johan_santana
p662
aVconcept:country:sweden
p663
aVconcept:zoo:south_carolina
p664
aVconcept:company:ebay
p665
aVconcept:country:france
p666
aVconcept:stateorprovince:illinois
p667
aVconcept:monument:presidential_elections
p668
aVconcept:programminglanguage:contact
p669
aVconcept:ceo:sergey_brin_and_larry_page
p670
aVconcept:university:suny
p671
aVconcept:city:pacific
p672
aVconcept:book:coraline
p673
aVconcept:stateorprovince:properties
p674
aVconcept:museum:greenville
p675
aVconcept:writer:jd_salinger
p676
aVconcept:book:the_bluest_eye
p677
aVconcept:university:alabama
p678
aVconcept:journalist:jim_owens
p679
aVconcept:coach:mike_d_antoni
p680
aVconcept:mlconference:universe
p681
aVconcept:room:main_bedroom
p682
aVconcept:eventoutcome:new
p683
aVconcept:airport:muscle_shoals
p684
aVconcept:recordlabel:universal_music
p685
aVconcept:sportsteam:saint_louis_billikens
p686
aVconcept:politicianus:bills
p687
aVconcept:magazine:people
p688
aVconcept:personus:roberto_alomar
p689
aVconcept:journalist:walter_cronkite
p690
aVconcept:website:phone
p691
aVconcept:athlete:johnny_damon
p692
aVconcept:dateliteral:n2008
p693
aVconcept:city:livermore
p694
aVconcept:book:one_hundred_years_of_solitude
p695
aVconcept:city:boston
p696
aVconcept:dateliteral:n2002
p697
aVconcept:stateorprovince:wisconsin
p698
aVconcept:dateliteral:n2005
p699
aVconcept:dateliteral:n2007
p700
aVconcept:book:the_year_of_magical_thinking
p701
aVconcept:book:origin_of_species
p702
aVconcept:book:a_case_of_conscience
p703
aVconcept:journalist:timothy_egan
p704
aVconcept:island:system
p705
aVconcept:creditunion:west_virginia
p706
aVconcept:sportsleague:college
p707
aVconcept:person:world
p708
aVconcept:male:stephen
p709
aVconcept:city:contact
p710
aVconcept:sportsgame:games
p711
aVconcept:criminal:menu
p712
aVconcept:stateorprovince:pennsylvania
p713
aVconcept:city:vegas
p714
aVconcept:scientist:kingfisher_airlines
p715
aVconcept:sportsteam:vols
p716
aVconcept:coach:scott_skiles
p717
aVconcept:building:four_queens
p718
aVconcept:stateorprovince:new_jersey
p719
aVconcept:book:the_chronicles_of_narnia
p720
aVconcept:physicalaction:position
p721
aVconcept:sportsteam:penguins
p722
aVconcept:personus:jules_verne
p723
aVconcept:city:richmond
p724
aVconcept:county:sacramento
p725
aVconcept:attraction:red_rock
p726
aVconcept:county:ford
p727
aVconcept:personcanada:ken_lay
p728
aVconcept:city:pocatello
p729
aVconcept:architect:stephen_king
p730
aVconcept:mountain:san_bernardino
p731
aVconcept:musician:president_bill_clinton
p732
aVconcept:furniture:sofa_beds
p733
aVconcept:book:slaughterhouse_five
p734
aVconcept:personus:john_irving
p735
aVconcept:newspaper:packet
p736
aVconcept:coach:cam_cameron
p737
aVconcept:person:nick_saban
p738
aVconcept:bank:barclays
p739
aVconcept:athlete:dan_cortes
p740
aVconcept:personafrica:mpaa
p741
aVconcept:ceo:warren_buffett
p742
aVconcept:company:organizations
p743
aVconcept:city:fairfield
p744
aVconcept:landscapefeatures:part
p745
aVconcept:city:business
p746
aVconcept:writer:husband
p747
aVconcept:scientist:jake_tapper
p748
aVconcept:sportsteam:marshall_thundering_herd
p749
aVconcept:coach:bob_bradley
p750
aVconcept:coach:andy_reid
p751
aVconcept:person:jim001
p752
aVconcept:celebrity:jennifer
p753
aVconcept:island:territory
p754
aVconcept:university:raiders
p755
aVconcept:stadiumoreventvenue:louisiana_state_university
p756
aVconcept:male:years
p757
aVconcept:televisionstation:wtce
p758
aVconcept:sportsgame:title
p759
aVconcept:physicalaction:work
p760
aVconcept:website:tribune
p761
aVconcept:book:the_picture_of_dorian_gray
p762
aVconcept:city:winter_park
p763
aVconcept:recordlabel:rca_victor
p764
aVconcept:politician:obama
p765
aVconcept:programminglanguage:print
p766
aVconcept:person:frank_beamer
p767
aVconcept:geopoliticallocation:jamestown
p768
aVconcept:country:cayman_islands
p769
aVconcept:port:port_hueneme
p770
aVconcept:personcanada:bernard_ebbers
p771
aVconcept:politicianus:dianne_feinstein
p772
aVconcept:website:download
p773
aVconcept:personcanada:larry_ellison
p774
aVconcept:city:east_palo_alto
p775
aVconcept:monument:drug_administration
p776
aVconcept:landscapefeatures:sight
p777
aVconcept:tradeunion:agency
p778
aVconcept:island:allen
p779
aVconcept:city:belmopan
p780
aVconcept:furniture:canopy_bed
p781
aVconcept:person:christodoulos
p782
aVconcept:sportsteam:xavier_musketeers
p783
aVconcept:geopoliticallocation:north_carolina
p784
aVconcept:room:rooms
p785
aVconcept:county:utah
p786
aVconcept:city:new_orleans
p787
aVconcept:invertebrate:orders
p788
aVconcept:transportation:stockholm
p789
aVconcept:celebrity:star
p790
aVconcept:country:zimbabwe
p791
aVconcept:hotel:the_metropolitan
p792
aVconcept:city:article
p793
aVconcept:radiostation:cincinnati
p794
aVconcept:city:police
p795
aVconcept:company:worldcom
p796
aVconcept:city:healdsburg
p797
aVconcept:coach:stanley_cup
p798
aVconcept:room:bathrooms
p799
aVconcept:stateorprovince:colorado
p800
aVconcept:athlete:testing
p801
aVconcept:sportsgame:half
p802
aVconcept:mlsoftware:instance
p803
aVconcept:arthropod:files
p804
aVconcept:university:media
p805
aVconcept:person:greg001
p806
aVconcept:personus:lawrence
p807
aVconcept:personmexico:ncaa
p808
aVconcept:personus:terry_pratchett
p809
aVconcept:country:afghanistan
p810
aVconcept:room:first_floor
p811
aVconcept:biotechcompany:pfizer
p812
aVconcept:weapon:weeks
p813
aVconcept:hallwayitem:car
p814
aVconcept:company:news_corp
p815
aVconcept:book:of_human_bondage
p816
aVconcept:coach:new_york_giants
p817
aVconcept:movie:the_lord_of_the_rings
p818
aVconcept:geopoliticallocation:east
p819
aVconcept:coach:hu_jintao
p820
aVconcept:county:georgetown
p821
aVconcept:actor:jones
p822
aVconcept:city:nicholasville
p823
aVconcept:person:john_thain
p824
aVconcept:geopoliticalorganization:minnesota
p825
aVconcept:politician:hussein_obama
p826
aVconcept:stateorprovince:ohio
p827
aVconcept:city:scranton
p828
aVconcept:person:bear_bryant
p829
aVconcept:stateorprovince:maine
p830
aVconcept:musicalbum:suit
p831
aVconcept:book:anansi_boys
p832
aVconcept:sportsteam:colorado_st__rams
p833
aVconcept:sportsteam:dodgers
p834
aVconcept:sportsteam:boston_redsox
p835
aVconcept:book:around_the_world_in_eighty_days
p836
aVconcept:personus:evelyn_waugh
p837
aVconcept:company:nokia
p838
aVconcept:musicsong:jerusalem
p839
aVconcept:book:print
p840
aVconcept:company:air
p841
aVconcept:city:hendersonville
p842
aVconcept:personaustralia:steve
p843
aVconcept:person:mac
p844
aVconcept:bank:wells_fargo
p845
aVconcept:city:articles
p846
aVconcept:sportsteam:wichita_state_shockers
p847
aVconcept:hotel:westminster
p848
aVconcept:politicianus:william_safire
p849
aVconcept:person:bill_ford
p850
aVconcept:person:greg_robinson
p851
aVconcept:person:wen_jiabao
p852
aVconcept:sociopolitical:democracy
p853
aVconcept:eventoutcome:basis
p854
aVconcept:book:ireland
p855
aVconcept:company:sun
p856
aVconcept:sportsteam:new_york_jets
p857
aVconcept:person:clive_davis001
p858
aVconcept:male:jfk
p859
aVconcept:landscapefeatures:summit
p860
aVconcept:book:martin_chuzzlewit
p861
aVconcept:city:help
p862
aVconcept:sportsteam:longhorns
p863
aVconcept:personasia:center
p864
aVconcept:city:santa_barbara
p865
aVconcept:bird:cockatoos
p866
aVconcept:city:casino
p867
aVconcept:book:angle_of_repose
p868
aVconcept:politicianus:newt_gingrich
p869
aVconcept:coach:mack_brown
p870
aVconcept:city:zagreb
p871
aVconcept:book:harry_potter_and_the_philosopher_s_stone
p872
aVconcept:personus:h__g__wells
p873
aVconcept:sportsteam:ball_state
p874
aVconcept:personcanada:beethoven
p875
aVconcept:sportsteam:texas_a_m
p876
aVconcept:programminglanguage:body
p877
aVconcept:athlete:shaq
p878
aVconcept:county:hudson_valley
p879
aVconcept:writer:greenspan
p880
aVconcept:book:henderson_the_rain_king
p881
aVconcept:movie:million_dollar_baby
p882
aVconcept:person:michael_crichton
p883
aVconcept:book:the_importance_of_being_earnest
p884
aVconcept:terroristorganization:informations
p885
aVconcept:sportsleague:nfl
p886
aVconcept:product:mac
p887
aVconcept:personus:james_blish
p888
aVconcept:company:goldman_sachs
p889
aVconcept:celebrity:educational
p890
aVconcept:sportsteam:n_c__state_wolfpack
p891
aVconcept:website:value
p892
aVconcept:sportsteam:germany
p893
aVconcept:country:britain
p894
aVconcept:city:lisbon
p895
aVconcept:automobilemaker:sony
p896
aVconcept:website:experience
p897
aVconcept:organization:greek_orthodox_church
p898
aVconcept:person:rodriguez
p899
aVconcept:person:jeff_bezos
p900
aVconcept:vertebrate:cockatiels
p901
aVconcept:island:davenport
p902
aVconcept:politicianus:ben_bernanke
p903
aVconcept:personus:shane_victorino
p904
aVconcept:person:sherman
p905
aVconcept:vertebrate:beasts
p906
aVconcept:coach:jerry_colangelo
p907
aVconcept:politicianus:robert_louis_stevenson
p908
aVconcept:athlete:john_elway
p909
aVconcept:city:las_cruces
p910
aVconcept:coach:romeo_crennel
p911
aVconcept:date:n2004
p912
aVconcept:programminglanguage:case
p913
aVconcept:newspaper:alabama
p914
aVconcept:stateorprovince:kentucky
p915
aVconcept:magazine:intel
p916
aVconcept:coach:bill_parcells
p917
aVconcept:male:seven
p918
aVconcept:book:the_return_of_sherlock_holmes
p919
aVconcept:stadiumoreventvenue:madison_square_garden
p920
aVconcept:governmentorganization:copy
p921
aVconcept:transportation:situation
p922
aVconcept:personus:charles_dickens
p923
aVconcept:transportation:increase
p924
aVconcept:city:montebello
p925
aVconcept:furniture:sofa_sleeper
p926
aVconcept:sportsteam:rams
p927
aVconcept:company:state
p928
aVconcept:sportsteam:northwestern
p929
aVconcept:geopoliticallocation:wayne
p930
aVconcept:planet:visit
p931
aVconcept:transportation:final_report
p932
aVconcept:stateorprovince:mississippi
p933
aVconcept:book:point_counter_point
p934
aVconcept:city:mcallen
p935
aVconcept:city:santa_rosa
p936
aVconcept:city:carlsbad
p937
aVconcept:book:the_hound_of_the_baskervilles
p938
aVconcept:country:same_time
p939
aVconcept:city:baltimore
p940
aVconcept:book:the_code_of_the_woosters
p941
aVconcept:journalist:nicholas_kristof
p942
aVconcept:coach:baltimore_ravens
p943
aVconcept:journalist:bob_woodruff
p944
aVconcept:journalist:peter_jennings
p945
aVconcept:ceo:robert_iger
p946
aVconcept:politicianus:rudy_giuliani
p947
aVconcept:city:belton
p948
aVconcept:company:florida
p949
aVconcept:stateorprovince:details
p950
aVconcept:city:download
p951
aVconcept:person:alan_greenspan
p952
aVconcept:blog:george_w__bush
p953
aVconcept:programminglanguage:stores
p954
aVconcept:personus:graham_greene
p955
aVconcept:city:monroe
p956
aVconcept:company:flickr001
p957
aVconcept:city:mission_viejo
p958
aVconcept:book:the_prince_and_the_pauper
p959
aVconcept:jobposition:areas
p960
aVconcept:county:marion
p961
aVconcept:animal:hippos
p962
aVconcept:person:meg_whitman
p963
aVconcept:company:fannie_mae
p964
aVconcept:householditem:english
p965
aVconcept:city:new_york_city
p966
aVconcept:sportsteam:coast_guard_academy_bears
p967
aVconcept:scientist:lebanon
p968
aVconcept:city:roseville
p969
aVconcept:ceo:richard_branson
p970
aVconcept:city:dana_point
p971
aVconcept:recordlabel:sony
p972
aVconcept:city:design
p973
aVconcept:personus:aristophanes
p974
aVconcept:musicinstrument:piano
p975
aVconcept:city:gurnee
p976
aVconcept:automobilemaker:ford
p977
aVconcept:university:ohio
p978
aVconcept:city:page
p979
aVconcept:personaustralia:shirley_jackson
p980
aVconcept:book:gospel
p981
aVconcept:governmentorganization:state
p982
aVconcept:city:plainfield
p983
aVconcept:ceo:raymond
p984
aVconcept:buildingfeature:systems
p985
aVconcept:ceo:steve_forbes
p986
aVconcept:book:a_murder_is_announced
p987
aVconcept:year:n1998
p988
aVconcept:company:hsbc
p989
aVconcept:year:n1994
p990
aVconcept:museum:bookstores
p991
aVconcept:recordlabel:virgin_records
p992
aVconcept:website:coca_cola
p993
aVconcept:buildingfeature:page
p994
aVconcept:blog:the_new_york_times
p995
aVconcept:county:clifton
p996
aVconcept:coach:rich_rodriguez
p997
aVconcept:sportsteam:oakland_raiders
p998
aVconcept:hobby:click
p999
aVconcept:sportsteam:delaware_state
p1000
aVconcept:programminglanguage:site
p1001
aVconcept:personaustralia:joan_didion
p1002
aVconcept:city:redmond
p1003
aVconcept:landscapefeatures:belize
p1004
aVconcept:personafrica:websites
p1005
aVconcept:musicartist:comments
p1006
aVconcept:newspaper:maryland
p1007
aVconcept:stateorprovince:california
p1008
aVconcept:company:continental_airlines001
p1009
aVconcept:person:republican
p1010
aVconcept:magazine:picture
p1011
aVconcept:politicsblog:new_hampshire
p1012
aVconcept:city:rest
p1013
aVconcept:politicianus:michael_bloomberg
p1014
aVconcept:geopoliticalorganization:theaters
p1015
aVconcept:sportsteam:youngstown_state_penguins
p1016
aVconcept:stateorprovince:states
p1017
aVconcept:book:a_study_in_scarlet
p1018
aVconcept:programminglanguage:link
p1019
aVconcept:crimeorcharge:direct_consequence
p1020
aVconcept:bridge:world
p1021
aVconcept:dayofweek:wednesday
p1022
aVconcept:transportation:calgary
p1023
aVconcept:athlete:ronaldo
p1024
aVconcept:personus:c__s__lewis
p1025
aVconcept:musicinstrument:cello
p1026
aVconcept:musicalbum:demons
p1027
aVconcept:movie:mystic_river
p1028
aVconcept:county:los_angeles
p1029
aVconcept:city:new_rochelle
p1030
aVconcept:book:count_of_monte_cristo
p1031
aVconcept:company:whole_foods_market
p1032
aVconcept:county:montpelier
p1033
aVconcept:ceo:gordon_bethune
p1034
aVconcept:automobilemodel:sierra
p1035
aVconcept:person:fulmer
p1036
aVconcept:programminglanguage:david
p1037
aVconcept:coach:new_england_patriots
p1038
aVconcept:personus:roald_dahl
p1039
aVconcept:room:bath
p1040
aVconcept:personnorthamerica:michael_geoghegan
p1041
aVconcept:highway:the_new
p1042
aVconcept:company:firefox
p1043
aVconcept:city:wasco
p1044
aVconcept:company:enron
p1045
aVconcept:person:john_roberts
p1046
aVconcept:ceo:eric_e__schmidt
p1047
aVconcept:company:arizona
p1048
aVconcept:book:the_three_musketeers
p1049
aVconcept:hallwayitem:browser_window
p1050
aVconcept:eventoutcome:facility
p1051
aVconcept:stateorprovince:louisiana
p1052
aVconcept:personus:angus_young
p1053
aVconcept:journalist:sam_dillon
p1054
aVconcept:person:belichick
p1055
aVconcept:book:the_mysterious_affair_at_styles
p1056
aVconcept:city:father
p1057
aVconcept:monument:jaipur
p1058
aVconcept:city:grand_rapids
p1059
aVconcept:room:master
p1060
aVconcept:sportsteam:phillies
p1061
aVconcept:ethnicgroup:tanzania
p1062
aVconcept:musicalbum:relations
p1063
aVconcept:bird:birds
p1064
aVconcept:sportsleague:cnn
p1065
aVconcept:company:oracle
p1066
aVconcept:company:adobe_systems_inc_
p1067
aVconcept:company:china
p1068
aVconcept:city:bryan
p1069
aVconcept:city:kissimmee
p1070
aVconcept:sportsteam:morehead_state_eagles
p1071
aVconcept:personus:charlotte_bronte
p1072
aVconcept:movie:sherlock_holmes
p1073
aVconcept:island:look
p1074
aVconcept:book:the_last_of_the_mohicans
p1075
aVconcept:trainstation:state_college
p1076
aVconcept:journalist:anderson_cooper
p1077
aVconcept:person:roger_ailes
p1078
aVconcept:bird:cardinals
p1079
aVconcept:month:august
p1080
aVconcept:city:tbilisi
p1081
aVconcept:coach:matt_schaub
p1082
aVconcept:city:tv
p1083
aVconcept:sportsteam:yankees
p1084
aVconcept:city:cathedral_city
p1085
aVconcept:journalist:christopher_lehmann_haupt
p1086
aVconcept:coach:billy_gillispie
p1087
aVconcept:visualartmovement:united_states
p1088
aVconcept:person:cheney
p1089
aVconcept:city:santo_domingo
p1090
aVconcept:book:the_mill_on_the_floss
p1091
aVconcept:newspaper:arkansas
p1092
atRp1093
sS'rel'
p1094
g3
((lp1095
Vconcept:agentparticipatedinevent
p1096
aVconcept:agentcontributedtocreativework
p1097
aVconcept:controlledbyagent
p1098
aVconcept:agentcontrols
p1099
aVconcept:agentinvolvedwithitem
p1100
aVconcept:proxyfor
p1101
aVconcept:personleadsorganization
p1102
aVconcept:organizationleadbyperson
p1103
aVconcept:agentcreated
p1104
aVconcept:superpartof
p1105
aVconcept:locationcontainslocation
p1106
aVconcept:creativeworkcontributedtobyagent
p1107
aVconcept:roomcancontainfurniture
p1108
aVconcept:agentcollaborateswithagent
p1109
aVconcept:createdbyagent
p1110
aVconcept:personbelongstoorganization
p1111
aVconcept:atdate
p1112
atRp1113
s.